target datalayout = "e-m:e-p270:32:32-p271:32:32-p272:64:64-i64:64-i128:128-f80:128-n8:16:32:64-S128"
target triple = "x86_64-pc-linux-gnu"

%struct.ident_t = type { i32, i32, i32, i32, ptr }
%"class.std::__cxx11::basic_string" = type { %"struct.std::__cxx11::basic_string<char>::_Alloc_hider", i64, %union.anon }
%"struct.std::__cxx11::basic_string<char>::_Alloc_hider" = type { ptr }
%union.anon = type { i64, [8 x i8] }
%"struct.faiss::HeapBlockResultHandler" = type { %"struct.faiss::BlockResultHandler", ptr, ptr, i64 }
%"struct.faiss::BlockResultHandler" = type { ptr, i64, i64, i64 }

@.str = private unnamed_addr constant [63 x i8] c"Error: '%s' failed: search params not supported for this index\00", align 1
@.str.1 = private unnamed_addr constant [8 x i8] c"!params\00", align 1
@__PRETTY_FUNCTION__._ZNK5faiss15IndexBinaryHNSW6searchElPKhlPiPlPKNS_16SearchParametersE = private unnamed_addr constant [127 x i8] c"virtual void faiss::IndexBinaryHNSW::search(idx_t, const uint8_t *, idx_t, int32_t *, idx_t *, const SearchParameters *) const\00", align 1
@.str.2 = private unnamed_addr constant [115 x i8] c"generated/home/dtcxzyw/WorkSpace/Projects/compilers/llvm-opt-benchmark/bench/faiss/faiss/faiss/IndexBinaryHNSW.cpp\00", align 1
@_ZTIN5faiss14FaissExceptionE = external constant ptr
@.str.3 = private unnamed_addr constant [19 x i8] c"Error: '%s' failed\00", align 1
@.str.4 = private unnamed_addr constant [6 x i8] c"k > 0\00", align 1
@3 = private unnamed_addr constant %struct.ident_t { i32 0, i32 2, i32 0, i32 22, ptr @0 }, align 8

; Function Attrs: mustprogress nounwind uwtable
define linkonce_odr void @_ZN5faiss18BlockResultHandlerINS_4CMaxIflEEED2Ev(ptr noundef nonnull align 8 dereferenceable(32) %0) unnamed_addr #0 comdat align 2 {
  %2 = alloca ptr, align 8
  store ptr %0, ptr %2, align 8
  ret void
}

; Function Attrs: mustprogress nounwind uwtable
define linkonce_odr void @_ZN5faiss18BlockResultHandlerINS_4CMaxIflEEEC2Em(ptr noundef nonnull align 8 dereferenceable(32) %0, i64 noundef %1) unnamed_addr #0 comdat align 2 {
  %3 = alloca ptr, align 8
  %4 = alloca i64, align 8
  store ptr %0, ptr %3, align 8
  store i64 %1, ptr %4, align 8
  %5 = load ptr, ptr %3, align 8
  store ptr getelementptr inbounds ({ [7 x ptr] }, ptr @_ZTVN5faiss18BlockResultHandlerINS_4CMaxIflEEEE, i32 0, i32 0, i32 2), ptr %5, align 8
  %6 = getelementptr inbounds %"struct.faiss::BlockResultHandler", ptr %5, i32 0, i32 1
  %7 = load i64, ptr %4, align 8
  store i64 %7, ptr %6, align 8
  %8 = getelementptr inbounds %"struct.faiss::BlockResultHandler", ptr %5, i32 0, i32 2
  store i64 0, ptr %8, align 8
  %9 = getelementptr inbounds %"struct.faiss::BlockResultHandler", ptr %5, i32 0, i32 3
  store i64 0, ptr %9, align 8
  ret void
}

; Function Attrs: mustprogress nounwind uwtable
define linkonce_odr void @_ZN5faiss22HeapBlockResultHandlerINS_4CMaxIflEEED2Ev(ptr noundef nonnull align 8 dereferenceable(56) %0) unnamed_addr #0 comdat align 2 {
  %2 = alloca ptr, align 8
  store ptr %0, ptr %2, align 8
  %3 = load ptr, ptr %2, align 8
  call void @_ZN5faiss18BlockResultHandlerINS_4CMaxIflEEED2Ev(ptr noundef nonnull align 8 dereferenceable(32) %3) #8
  ret void
}

; Function Attrs: mustprogress uwtable
define linkonce_odr void @_ZN5faiss22HeapBlockResultHandlerINS_4CMaxIflEEEC2EmPfPlm(ptr noundef nonnull align 8 dereferenceable(56) %0, i64 noundef %1, ptr noundef %2, ptr noundef %3, i64 noundef %4) unnamed_addr #1 comdat align 2 {
  %6 = alloca ptr, align 8
  %7 = alloca i64, align 8
  %8 = alloca ptr, align 8
  %9 = alloca ptr, align 8
  %10 = alloca i64, align 8
  store ptr %0, ptr %6, align 8
  store i64 %1, ptr %7, align 8
  store ptr %2, ptr %8, align 8
  store ptr %3, ptr %9, align 8
  store i64 %4, ptr %10, align 8
  %11 = load ptr, ptr %6, align 8
  %12 = load i64, ptr %7, align 8
  call void @_ZN5faiss18BlockResultHandlerINS_4CMaxIflEEEC2Em(ptr noundef nonnull align 8 dereferenceable(32) %11, i64 noundef %12)
  store ptr getelementptr inbounds ({ [7 x ptr] }, ptr @_ZTVN5faiss22HeapBlockResultHandlerINS_4CMaxIflEEEE, i32 0, i32 0, i32 2), ptr %11, align 8
  %13 = getelementptr inbounds %"struct.faiss::HeapBlockResultHandler", ptr %11, i32 0, i32 1
  %14 = load ptr, ptr %8, align 8
  store ptr %14, ptr %13, align 8
  %15 = getelementptr inbounds %"struct.faiss::HeapBlockResultHandler", ptr %11, i32 0, i32 2
  %16 = load ptr, ptr %9, align 8
  store ptr %16, ptr %15, align 8
  %17 = getelementptr inbounds %"struct.faiss::HeapBlockResultHandler", ptr %11, i32 0, i32 3
  %18 = load i64, ptr %10, align 8
  store i64 %18, ptr %17, align 8
  ret void
}

; Function Attrs: mustprogress uwtable
define void @_ZNK5faiss15IndexBinaryHNSW6searchElPKhlPiPlPKNS_16SearchParametersE(ptr noundef nonnull align 8 dereferenceable(5200) %0, i64 noundef %1, ptr noundef %2, i64 noundef %3, ptr noundef %4, ptr noundef %5, ptr noundef %6) unnamed_addr #1 align 2 personality ptr @__gxx_personality_v0 {
  %8 = alloca ptr, align 8
  %9 = alloca i64, align 8
  %10 = alloca ptr, align 8
  %11 = alloca i64, align 8
  %12 = alloca ptr, align 8
  %13 = alloca ptr, align 8
  %14 = alloca ptr, align 8
  %15 = alloca %"class.std::__cxx11::basic_string", align 8
  %16 = alloca i32, align 4
  %17 = alloca ptr, align 8
  %18 = alloca i32, align 4
  %19 = alloca %"class.std::__cxx11::basic_string", align 8
  %20 = alloca i32, align 4
  %21 = alloca ptr, align 8
  %22 = alloca %"struct.faiss::HeapBlockResultHandler", align 8
  store ptr %0, ptr %8, align 8
  store i64 %1, ptr %9, align 8
  store ptr %2, ptr %10, align 8
  store i64 %3, ptr %11, align 8
  store ptr %4, ptr %12, align 8
  store ptr %5, ptr %13, align 8
  store ptr %6, ptr %14, align 8
  %23 = load ptr, ptr %8, align 8
  br label %24

24:                                               ; preds = %7
  %25 = load ptr, ptr %14, align 8
  %26 = icmp ne ptr %25, null
  br i1 %26, label %27, label %50

27:                                               ; preds = %24
  br label %28

28:                                               ; preds = %27
  call void @_ZNSt7__cxx1112basic_stringIcSt11char_traitsIcESaIcEEC1Ev(ptr noundef nonnull align 8 dereferenceable(32) %15) #8
  %29 = call i32 (ptr, i64, ptr, ...) @snprintf(ptr noundef null, i64 noundef 0, ptr noundef @.str, ptr noundef @.str.1) #8
  store i32 %29, ptr %16, align 4
  %30 = load i32, ptr %16, align 4
  %31 = add nsw i32 %30, 1
  %32 = sext i32 %31 to i64
  invoke void @_ZNSt7__cxx1112basic_stringIcSt11char_traitsIcESaIcEE6resizeEm(ptr noundef nonnull align 8 dereferenceable(32) %15, i64 noundef %32)
          to label %33 unwind label %40

33:                                               ; preds = %28
  %34 = invoke noundef nonnull align 1 dereferenceable(1) ptr @_ZNSt7__cxx1112basic_stringIcSt11char_traitsIcESaIcEEixEm(ptr noundef nonnull align 8 dereferenceable(32) %15, i64 noundef 0)
          to label %35 unwind label %40

35:                                               ; preds = %33
  %36 = call noundef i64 @_ZNKSt7__cxx1112basic_stringIcSt11char_traitsIcESaIcEE4sizeEv(ptr noundef nonnull align 8 dereferenceable(32) %15) #8
  %37 = call i32 (ptr, i64, ptr, ...) @snprintf(ptr noundef %34, i64 noundef %36, ptr noundef @.str, ptr noundef @.str.1) #8
  %38 = call ptr @__cxa_allocate_exception(i64 40) #8
  invoke void @_ZN5faiss14FaissExceptionC1ERKNSt7__cxx1112basic_stringIcSt11char_traitsIcESaIcEEEPKcSA_i(ptr noundef nonnull align 8 dereferenceable(40) %38, ptr noundef nonnull align 8 dereferenceable(32) %15, ptr noundef @__PRETTY_FUNCTION__._ZNK5faiss15IndexBinaryHNSW6searchElPKhlPiPlPKNS_16SearchParametersE, ptr noundef @.str.2, i32 noundef 200)
          to label %39 unwind label %44

39:                                               ; preds = %35
  invoke void @__cxa_throw(ptr %38, ptr @_ZTIN5faiss14FaissExceptionE, ptr @_ZN5faiss14FaissExceptionD2Ev) #18
          to label %90 unwind label %40

40:                                               ; preds = %39, %33, %28
  %41 = landingpad { ptr, i32 }
          cleanup
  %42 = extractvalue { ptr, i32 } %41, 0
  store ptr %42, ptr %17, align 8
  %43 = extractvalue { ptr, i32 } %41, 1
  store i32 %43, ptr %18, align 4
  br label %48

44:                                               ; preds = %35
  %45 = landingpad { ptr, i32 }
          cleanup
  %46 = extractvalue { ptr, i32 } %45, 0
  store ptr %46, ptr %17, align 8
  %47 = extractvalue { ptr, i32 } %45, 1
  store i32 %47, ptr %18, align 4
  call void @__cxa_free_exception(ptr %38) #8
  br label %48

48:                                               ; preds = %44, %40
  call void @_ZNSt7__cxx1112basic_stringIcSt11char_traitsIcESaIcEED1Ev(ptr noundef nonnull align 8 dereferenceable(32) %15) #8
  br label %85

49:                                               ; No predecessors!
  br label %50

50:                                               ; preds = %49, %24
  br label %51

51:                                               ; preds = %50
  br label %52

52:                                               ; preds = %51
  %53 = load i64, ptr %11, align 8
  %54 = icmp sgt i64 %53, 0
  br i1 %54, label %78, label %55

55:                                               ; preds = %52
  br label %56

56:                                               ; preds = %55
  call void @_ZNSt7__cxx1112basic_stringIcSt11char_traitsIcESaIcEEC1Ev(ptr noundef nonnull align 8 dereferenceable(32) %19) #8
  %57 = call i32 (ptr, i64, ptr, ...) @snprintf(ptr noundef null, i64 noundef 0, ptr noundef @.str.3, ptr noundef @.str.4) #8
  store i32 %57, ptr %20, align 4
  %58 = load i32, ptr %20, align 4
  %59 = add nsw i32 %58, 1
  %60 = sext i32 %59 to i64
  invoke void @_ZNSt7__cxx1112basic_stringIcSt11char_traitsIcESaIcEE6resizeEm(ptr noundef nonnull align 8 dereferenceable(32) %19, i64 noundef %60)
          to label %61 unwind label %68

61:                                               ; preds = %56
  %62 = invoke noundef nonnull align 1 dereferenceable(1) ptr @_ZNSt7__cxx1112basic_stringIcSt11char_traitsIcESaIcEEixEm(ptr noundef nonnull align 8 dereferenceable(32) %19, i64 noundef 0)
          to label %63 unwind label %68

63:                                               ; preds = %61
  %64 = call noundef i64 @_ZNKSt7__cxx1112basic_stringIcSt11char_traitsIcESaIcEE4sizeEv(ptr noundef nonnull align 8 dereferenceable(32) %19) #8
  %65 = call i32 (ptr, i64, ptr, ...) @snprintf(ptr noundef %62, i64 noundef %64, ptr noundef @.str.3, ptr noundef @.str.4) #8
  %66 = call ptr @__cxa_allocate_exception(i64 40) #8
  invoke void @_ZN5faiss14FaissExceptionC1ERKNSt7__cxx1112basic_stringIcSt11char_traitsIcESaIcEEEPKcSA_i(ptr noundef nonnull align 8 dereferenceable(40) %66, ptr noundef nonnull align 8 dereferenceable(32) %19, ptr noundef @__PRETTY_FUNCTION__._ZNK5faiss15IndexBinaryHNSW6searchElPKhlPiPlPKNS_16SearchParametersE, ptr noundef @.str.2, i32 noundef 201)
          to label %67 unwind label %72

67:                                               ; preds = %63
  invoke void @__cxa_throw(ptr %66, ptr @_ZTIN5faiss14FaissExceptionE, ptr @_ZN5faiss14FaissExceptionD2Ev) #18
          to label %90 unwind label %68

68:                                               ; preds = %67, %61, %56
  %69 = landingpad { ptr, i32 }
          cleanup
  %70 = extractvalue { ptr, i32 } %69, 0
  store ptr %70, ptr %17, align 8
  %71 = extractvalue { ptr, i32 } %69, 1
  store i32 %71, ptr %18, align 4
  br label %76

72:                                               ; preds = %63
  %73 = landingpad { ptr, i32 }
          cleanup
  %74 = extractvalue { ptr, i32 } %73, 0
  store ptr %74, ptr %17, align 8
  %75 = extractvalue { ptr, i32 } %73, 1
  store i32 %75, ptr %18, align 4
  call void @__cxa_free_exception(ptr %66) #8
  br label %76

76:                                               ; preds = %72, %68
  call void @_ZNSt7__cxx1112basic_stringIcSt11char_traitsIcESaIcEED1Ev(ptr noundef nonnull align 8 dereferenceable(32) %19) #8
  br label %85

77:                                               ; No predecessors!
  br label %78

78:                                               ; preds = %77, %52
  br label %79

79:                                               ; preds = %78
  %80 = load ptr, ptr %12, align 8
  store ptr %80, ptr %21, align 8
  %81 = load i64, ptr %9, align 8
  %82 = load ptr, ptr %21, align 8
  %83 = load ptr, ptr %13, align 8
  %84 = load i64, ptr %11, align 8
  call void @_ZN5faiss22HeapBlockResultHandlerINS_4CMaxIflEEEC2EmPfPlm(ptr noundef nonnull align 8 dereferenceable(56) %22, i64 noundef %81, ptr noundef %82, ptr noundef %83, i64 noundef %84)
  call void (ptr, i32, ptr, ...) @__kmpc_fork_call(ptr @3, i32 4, ptr @_ZNK5faiss15IndexBinaryHNSW6searchElPKhlPiPlPKNS_16SearchParametersE.omp_outlined, ptr %23, ptr %22, ptr %9, ptr %10)
  call void (ptr, i32, ptr, ...) @__kmpc_fork_call(ptr @3, i32 4, ptr @_ZNK5faiss15IndexBinaryHNSW6searchElPKhlPiPlPKNS_16SearchParametersE.omp_outlined.5, ptr %11, ptr %9, ptr %12, ptr %21)
  call void @_ZN5faiss22HeapBlockResultHandlerINS_4CMaxIflEEED2Ev(ptr noundef nonnull align 8 dereferenceable(56) %22) #8
  ret void

85:                                               ; preds = %76, %48
  %86 = load ptr, ptr %17, align 8
  %87 = load i32, ptr %18, align 4
  %88 = insertvalue { ptr, i32 } poison, ptr %86, 0
  %89 = insertvalue { ptr, i32 } %88, i32 %87, 1
  resume { ptr, i32 } %89

90:                                               ; preds = %67, %39
  unreachable
}