; Function Attrs: mustprogress uwtable
define void @_ZNK5faiss15IndexBinaryHNSW6searchElPKhlPiPlPKNS_16SearchParametersE(ptr noundef nonnull align 8 dereferenceable(5200) %0, i64 noundef %1, ptr noundef %2, i64 noundef %3, ptr noundef %4, ptr noundef %5, ptr noundef readnone %6) unnamed_addr #1 align 2 personality ptr @__gxx_personality_v0 {
  %8 = alloca i64, align 8
  %9 = alloca ptr, align 8
  %10 = alloca i64, align 8
  %11 = alloca ptr, align 8
  %12 = alloca %"class.std::__cxx11::basic_string", align 8
  %13 = alloca %"class.std::__cxx11::basic_string", align 8
  %14 = alloca ptr, align 8
  %15 = alloca %"struct.faiss::HeapBlockResultHandler", align 8
  store i64 %1, ptr %8, align 8
  store ptr %2, ptr %9, align 8
  store i64 %3, ptr %10, align 8
  store ptr %4, ptr %11, align 8
  %.not = icmp eq ptr %6, null
  br i1 %.not, label %31, label %16

16:                                               ; preds = %7
  call void @_ZNSt7__cxx1112basic_stringIcSt11char_traitsIcESaIcEEC1Ev(ptr noundef nonnull align 8 dereferenceable(32) %12) #9
  %17 = call i32 (ptr, i64, ptr, ...) @snprintf(ptr noundef null, i64 noundef 0, ptr noundef nonnull @.str, ptr noundef nonnull @.str.1) #9
  %18 = add nsw i32 %17, 1
  %19 = sext i32 %18 to i64
  invoke void @_ZNSt7__cxx1112basic_stringIcSt11char_traitsIcESaIcEE6resizeEm(ptr noundef nonnull align 8 dereferenceable(32) %12, i64 noundef %19)
          to label %20 unwind label %27

20:                                               ; preds = %16
  %21 = invoke noundef nonnull align 1 dereferenceable(1) ptr @_ZNSt7__cxx1112basic_stringIcSt11char_traitsIcESaIcEEixEm(ptr noundef nonnull align 8 dereferenceable(32) %12, i64 noundef 0)
          to label %22 unwind label %27

22:                                               ; preds = %20
  %23 = call noundef i64 @_ZNKSt7__cxx1112basic_stringIcSt11char_traitsIcESaIcEE4sizeEv(ptr noundef nonnull align 8 dereferenceable(32) %12) #9
  %24 = call i32 (ptr, i64, ptr, ...) @snprintf(ptr noundef nonnull %21, i64 noundef %23, ptr noundef nonnull @.str, ptr noundef nonnull @.str.1) #9
  %25 = call ptr @__cxa_allocate_exception(i64 40) #9
  invoke void @_ZN5faiss14FaissExceptionC1ERKNSt7__cxx1112basic_stringIcSt11char_traitsIcESaIcEEEPKcSA_i(ptr noundef nonnull align 8 dereferenceable(40) %25, ptr noundef nonnull align 8 dereferenceable(32) %12, ptr noundef nonnull @__PRETTY_FUNCTION__._ZNK5faiss15IndexBinaryHNSW6searchElPKhlPiPlPKNS_16SearchParametersE, ptr noundef nonnull @.str.2, i32 noundef 200)
          to label %26 unwind label %29

26:                                               ; preds = %22
  invoke void @__cxa_throw(ptr nonnull %25, ptr nonnull @_ZTIN5faiss14FaissExceptionE, ptr nonnull @_ZN5faiss14FaissExceptionD2Ev) #22
          to label %55 unwind label %27

27:                                               ; preds = %26, %20, %16
  %28 = landingpad { ptr, i32 }
          cleanup
  br label %54

29:                                               ; preds = %22
  %30 = landingpad { ptr, i32 }
          cleanup
  call void @__cxa_free_exception(ptr %25) #9
  br label %54

31:                                               ; preds = %7
  %32 = icmp sgt i64 %3, 0
  br i1 %32, label %48, label %33

33:                                               ; preds = %31
  call void @_ZNSt7__cxx1112basic_stringIcSt11char_traitsIcESaIcEEC1Ev(ptr noundef nonnull align 8 dereferenceable(32) %13) #9
  %34 = call i32 (ptr, i64, ptr, ...) @snprintf(ptr noundef null, i64 noundef 0, ptr noundef nonnull @.str.3, ptr noundef nonnull @.str.4) #9
  %35 = add nsw i32 %34, 1
  %36 = sext i32 %35 to i64
  invoke void @_ZNSt7__cxx1112basic_stringIcSt11char_traitsIcESaIcEE6resizeEm(ptr noundef nonnull align 8 dereferenceable(32) %13, i64 noundef %36)
          to label %37 unwind label %44

37:                                               ; preds = %33
  %38 = invoke noundef nonnull align 1 dereferenceable(1) ptr @_ZNSt7__cxx1112basic_stringIcSt11char_traitsIcESaIcEEixEm(ptr noundef nonnull align 8 dereferenceable(32) %13, i64 noundef 0)
          to label %39 unwind label %44

39:                                               ; preds = %37
  %40 = call noundef i64 @_ZNKSt7__cxx1112basic_stringIcSt11char_traitsIcESaIcEE4sizeEv(ptr noundef nonnull align 8 dereferenceable(32) %13) #9
  %41 = call i32 (ptr, i64, ptr, ...) @snprintf(ptr noundef nonnull %38, i64 noundef %40, ptr noundef nonnull @.str.3, ptr noundef nonnull @.str.4) #9
  %42 = call ptr @__cxa_allocate_exception(i64 40) #9
  invoke void @_ZN5faiss14FaissExceptionC1ERKNSt7__cxx1112basic_stringIcSt11char_traitsIcESaIcEEEPKcSA_i(ptr noundef nonnull align 8 dereferenceable(40) %42, ptr noundef nonnull align 8 dereferenceable(32) %13, ptr noundef nonnull @__PRETTY_FUNCTION__._ZNK5faiss15IndexBinaryHNSW6searchElPKhlPiPlPKNS_16SearchParametersE, ptr noundef nonnull @.str.2, i32 noundef 201)
          to label %43 unwind label %46

43:                                               ; preds = %39
  invoke void @__cxa_throw(ptr nonnull %42, ptr nonnull @_ZTIN5faiss14FaissExceptionE, ptr nonnull @_ZN5faiss14FaissExceptionD2Ev) #22
          to label %55 unwind label %44

44:                                               ; preds = %43, %37, %33
  %45 = landingpad { ptr, i32 }
          cleanup
  br label %54

46:                                               ; preds = %39
  %47 = landingpad { ptr, i32 }
          cleanup
  call void @__cxa_free_exception(ptr %42) #9
  br label %54

48:                                               ; preds = %31
  store ptr %4, ptr %14, align 8
  %49 = getelementptr inbounds i8, ptr %15, i64 8
  store i64 %1, ptr %49, align 8
  %50 = getelementptr inbounds i8, ptr %15, i64 16
  call void @llvm.memset.p0.i64(ptr noundef nonnull align 8 dereferenceable(16) %50, i8 0, i64 16, i1 false)
  store ptr getelementptr inbounds ({ [7 x ptr] }, ptr @_ZTVN5faiss22HeapBlockResultHandlerINS_4CMaxIflEEEE, i64 0, i32 0, i64 2), ptr %15, align 8
  %51 = getelementptr inbounds i8, ptr %15, i64 32
  store ptr %4, ptr %51, align 8
  %52 = getelementptr inbounds i8, ptr %15, i64 40
  store ptr %5, ptr %52, align 8
  %53 = getelementptr inbounds i8, ptr %15, i64 48
  store i64 %3, ptr %53, align 8
  call void (ptr, i32, ptr, ...) @__kmpc_fork_call(ptr nonnull @3, i32 4, ptr nonnull @_ZNK5faiss15IndexBinaryHNSW6searchElPKhlPiPlPKNS_16SearchParametersE.omp_outlined, ptr nonnull %0, ptr nonnull %15, ptr nonnull %8, ptr nonnull %9)
  call void (ptr, i32, ptr, ...) @__kmpc_fork_call(ptr nonnull @3, i32 4, ptr nonnull @_ZNK5faiss15IndexBinaryHNSW6searchElPKhlPiPlPKNS_16SearchParametersE.omp_outlined.5, ptr nonnull %10, ptr nonnull %8, ptr nonnull %11, ptr nonnull %14)
  ret void

54:                                               ; preds = %44, %46, %27, %29
  %.sink = phi ptr [ %12, %29 ], [ %12, %27 ], [ %13, %46 ], [ %13, %44 ]
  %.pn10.pn = phi { ptr, i32 } [ %30, %29 ], [ %28, %27 ], [ %47, %46 ], [ %45, %44 ]
  call void @_ZNSt7__cxx1112basic_stringIcSt11char_traitsIcESaIcEED1Ev(ptr noundef nonnull align 8 dereferenceable(32) %.sink) #9
  resume { ptr, i32 } %.pn10.pn

55:                                               ; preds = %43, %26
  unreachable
}